; Function Attrs: mustprogress nounwind uwtable
define hidden noundef ptr @_ZN17DependencyContext26dependencies_not_unloadingEv(ptr nocapture noundef nonnull readonly align 8 dereferenceable(16) %0) local_unnamed_addr #0 align 2 {
  %2 = load ptr, ptr %0, align 8
  %3 = load volatile ptr, ptr %2, align 8
  tail call void asm sideeffect "", "~{memory},~{dirflag},~{fpsr},~{flags}"() #12, !srcloc !8
  %4 = icmp eq ptr %3, null
  br i1 %4, label %._crit_edge, label %.lr.ph

.lr.ph:                                           ; preds = %1, %.backedge
  %5 = phi ptr [ %42, %.backedge ], [ %3, %1 ]
  %6 = load ptr, ptr %5, align 8
  %7 = tail call noundef zeroext i1 @_ZN7nmethod12is_unloadingEv(ptr noundef nonnull align 8 dereferenceable(214) %6) #12
  br i1 %7, label %8, label %._crit_edge

._crit_edge:                                      ; preds = %.backedge, %.lr.ph, %1
  %.lcssa = phi ptr [ null, %1 ], [ %5, %.lr.ph ], [ null, %.backedge ]
  ret ptr %.lcssa

8:                                                ; preds = %.lr.ph
  %9 = getelementptr inbounds i8, ptr %5, i64 8
  %10 = load volatile ptr, ptr %9, align 8
  tail call void asm sideeffect "", "~{memory},~{dirflag},~{fpsr},~{flags}"() #12, !srcloc !8
  %11 = load ptr, ptr %0, align 8
  %12 = load volatile ptr, ptr %11, align 8
  %.not = icmp eq ptr %12, %5
  br i1 %.not, label %13, label %.backedge

13:                                               ; preds = %8
  %14 = tail call noundef ptr asm sideeffect "lock cmpxchgq $1,($3)", "={ax},r,{ax},r,~{cc},~{memory},~{dirflag},~{fpsr},~{flags}"(ptr %10, ptr nonnull %5, ptr nonnull %11) #12, !srcloc !9
  %15 = icmp eq ptr %14, %5
  br i1 %15, label %16, label %.backedge

16:                                               ; preds = %13
  %17 = load volatile i64, ptr @_ZN17DependencyContext15_cleaning_epochE, align 8
  %18 = icmp eq i64 %17, 0
  br i1 %18, label %20, label %.preheader.i

.preheader.i:                                     ; preds = %16
  %19 = getelementptr inbounds i8, ptr %5, i64 16
  br label %23

20:                                               ; preds = %16
  tail call void @_Z8FreeHeapPv(ptr noundef nonnull %5) #12
  %21 = load i8, ptr @UsePerfData, align 1
  %22 = trunc i8 %21 to i1
  br i1 %22, label %.sink.split.i, label %.backedge

23:                                               ; preds = %23, %.preheader.i
  %24 = load volatile ptr, ptr @_ZN17DependencyContext11_purge_listE, align 8
  store volatile ptr %24, ptr %19, align 8
  %25 = tail call noundef ptr asm sideeffect "lock cmpxchgq $1,($3)", "={ax},r,{ax},r,~{cc},~{memory},~{dirflag},~{fpsr},~{flags}"(ptr nonnull %5, ptr %24, ptr nonnull @_ZN17DependencyContext11_purge_listE) #12, !srcloc !9
  %26 = icmp eq ptr %25, %24
  br i1 %26, label %27, label %23, !llvm.loop !10

27:                                               ; preds = %23
  %28 = load i8, ptr @UsePerfData, align 1
  %29 = trunc i8 %28 to i1
  br i1 %29, label %30, label %.backedge

30:                                               ; preds = %27
  %31 = load ptr, ptr @_ZN17DependencyContext31_perf_total_buckets_stale_countE, align 8
  %32 = getelementptr inbounds i8, ptr %31, i64 40
  %33 = load ptr, ptr %32, align 8
  %34 = load i64, ptr %33, align 8
  %35 = add nsw i64 %34, 1
  store i64 %35, ptr %33, align 8
  br label %.sink.split.i

.sink.split.i:                                    ; preds = %30, %20
  %_ZN17DependencyContext35_perf_total_buckets_stale_acc_countE.sink.i = phi ptr [ @_ZN17DependencyContext35_perf_total_buckets_stale_acc_countE, %30 ], [ @_ZN17DependencyContext37_perf_total_buckets_deallocated_countE, %20 ]
  %36 = load ptr, ptr %_ZN17DependencyContext35_perf_total_buckets_stale_acc_countE.sink.i, align 8
  %37 = getelementptr inbounds i8, ptr %36, i64 40
  %38 = load ptr, ptr %37, align 8
  %39 = load i64, ptr %38, align 8
  %40 = add nsw i64 %39, 1
  store i64 %40, ptr %38, align 8
  br label %.backedge

.backedge:                                        ; preds = %13, %20, %27, %.sink.split.i, %8
  %41 = load ptr, ptr %0, align 8
  %42 = load volatile ptr, ptr %41, align 8
  tail call void asm sideeffect "", "~{memory},~{dirflag},~{fpsr},~{flags}"() #12, !srcloc !8
  %43 = icmp eq ptr %42, null
  br i1 %43, label %._crit_edge, label %.lr.ph, !llvm.loop !11
}